; Function Attrs: mustprogress uwtable
define i32 @uhash_hashIStringView_77(ptr readonly %0) local_unnamed_addr #0 {
  %2 = icmp eq ptr %0, null
  br i1 %2, label %9, label %3

3:                                                ; preds = %1
  %4 = getelementptr inbounds nuw i8, ptr %0, i64 8
  %5 = load ptr, ptr %4, align 8, !tbaa !40
  %6 = load i64, ptr %0, align 8, !tbaa !44
  %7 = trunc i64 %6 to i32
  %8 = tail call i32 @ustr_hashICharsN_77(ptr noundef %5, i32 noundef %7)
  br label %9

9:                                                ; preds = %1, %3
  %10 = phi i32 [ %8, %3 ], [ 0, %1 ]
  ret i32 %10
}